; Function Attrs: nofree norecurse nosync nounwind memory(readwrite, inaccessiblemem: none) uwtable
define void @DenseScale(double noundef %0, ptr noundef readonly captures(none) %1) local_unnamed_addr #2 {
  %3 = getelementptr inbounds nuw i8, ptr %1, i64 72
  %4 = load ptr, ptr %3, align 8, !tbaa !3
  %5 = getelementptr inbounds nuw i8, ptr %1, i64 8
  %6 = load i64, ptr %5, align 8, !tbaa !12
  %7 = getelementptr inbounds nuw i8, ptr %1, i64 16
  %8 = load i64, ptr %7, align 8, !tbaa !13
  %9 = icmp sgt i64 %8, 0
  %10 = icmp sgt i64 %6, 0
  %or.cond.i = and i1 %10, %9
  br i1 %or.cond.i, label %.lr.ph.us.i, label %denseScale.exit

.lr.ph.us.i:                                      ; preds = %2, %._crit_edge.us.i
  %.01012.us.i = phi i64 [ %18, %._crit_edge.us.i ], [ 0, %2 ]
  %11 = getelementptr inbounds nuw ptr, ptr %4, i64 %.01012.us.i
  %12 = load ptr, ptr %11, align 8, !tbaa !16
  br label %13

13:                                               ; preds = %13, %.lr.ph.us.i
  %.011.us.i = phi i64 [ 0, %.lr.ph.us.i ], [ %17, %13 ]
  %14 = getelementptr inbounds nuw double, ptr %12, i64 %.011.us.i
  %15 = load double, ptr %14, align 8, !tbaa !17
  %16 = fmul double %0, %15
  store double %16, ptr %14, align 8, !tbaa !17
  %17 = add nuw nsw i64 %.011.us.i, 1
  %exitcond.not.i = icmp eq i64 %17, %6
  br i1 %exitcond.not.i, label %._crit_edge.us.i, label %13, !llvm.loop !51

._crit_edge.us.i:                                 ; preds = %13
  %18 = add nuw nsw i64 %.01012.us.i, 1
  %exitcond17.not.i = icmp eq i64 %18, %8
  br i1 %exitcond17.not.i, label %denseScale.exit, label %.lr.ph.us.i, !llvm.loop !52

denseScale.exit:                                  ; preds = %._crit_edge.us.i, %2
  ret void
}